target datalayout = "e-m:e-p270:32:32-p271:32:32-p272:64:64-i64:64-i128:128-f80:128-n8:16:32:64-S128"
target triple = "x86_64-unknown-linux-gnu"

%union.pthread_mutex_t = type { %struct.__pthread_mutex_s }
%struct.__pthread_mutex_s = type { i32, i32, i32, i32, i32, i16, i16, %struct.__pthread_internal_list }
%struct.__pthread_internal_list = type { ptr, ptr }
%struct.QTailQLink = type { ptr, ptr }
%struct.QemuMutex = type { %union.pthread_mutex_t, i8 }
%struct.CPUState = type { %struct.DeviceState, ptr, i32, i32, ptr, i32, i8, i8, ptr, i8, i8, i8, i8, i8, i8, i8, i8, i32, i32, i32, i32, i64, i64, i64, [1 x %struct.__jmp_buf_tag], %struct.QemuMutex, %struct.anon.5, ptr, i32, ptr, ptr, ptr, ptr, i32, i32, %union.anon.6, %union.anon.7, %union.anon.8, ptr, ptr, i64, i32, ptr, ptr, ptr, i32, i64, i32, %struct.QemuLockCnt, [1 x i64], ptr, i32, i32, i32, i32, i32, ptr, i8, i8, i64, i8, i8, ptr, [8 x i8], [0 x i8], %struct.CPUNegativeOffsetState }
%struct.DeviceState = type { %struct.Object, ptr, ptr, i8, i8, i64, ptr, i32, i8, ptr, %struct.NamedGPIOListHead, %struct.NamedClockListHead, %struct.BusStateHead, i32, i32, i32, %struct.ResettableState, ptr, %struct.MemReentrancyGuard }
%struct.Object = type { ptr, ptr, ptr, i32, ptr }
%struct.NamedGPIOListHead = type { ptr }
%struct.NamedClockListHead = type { ptr }
%struct.BusStateHead = type { ptr }
%struct.ResettableState = type { i32, i8, i8 }
%struct.MemReentrancyGuard = type { i8 }
%struct.__jmp_buf_tag = type { [8 x i64], i32, %struct.__sigset_t }
%struct.__sigset_t = type { [16 x i64] }
%struct.anon.5 = type { ptr, ptr }
%union.anon.6 = type { %struct.QTailQLink }
%union.anon.7 = type { %struct.QTailQLink }
%union.anon.8 = type { %struct.QTailQLink }
%struct.QemuLockCnt = type { i32 }
%struct.CPUNegativeOffsetState = type { %struct.CPUTLB, %union.IcountDecr, i8, [11 x i8] }
%struct.CPUTLB = type { %struct.CPUTLBCommon, [16 x %struct.CPUTLBDesc], [16 x %struct.CPUTLBDescFast] }
%struct.CPUTLBCommon = type { %struct.QemuSpin, i16, i64, i64, i64 }
%struct.QemuSpin = type { i32 }
%struct.CPUTLBDesc = type { i64, i64, i64, i64, i64, i64, [8 x %union.CPUTLBEntry], [8 x %struct.CPUTLBEntryFull], ptr }
%union.CPUTLBEntry = type { %struct.anon.9 }
%struct.anon.9 = type { i64, i64, i64, i64 }
%struct.CPUTLBEntryFull = type { i64, i64, %struct.MemTxAttrs, i8, i8, [3 x i8], %union.anon.10 }
%struct.MemTxAttrs = type { i32 }
%union.anon.10 = type { %struct.anon.11 }
%struct.anon.11 = type { i8, i8, i8 }
%struct.CPUTLBDescFast = type { i64, ptr }
%union.IcountDecr = type { i32 }
%struct.TaskState = type { i32, i32, i64, i64, i64, i64, i32, ptr, ptr, %struct.emulated_sigtable, [64 x %struct.emulated_sigtable], %struct.__sigset_t, %struct.__sigset_t, i32, i32, %struct.target_sigaltstack, i64 }
%struct.emulated_sigtable = type { i32, %struct.target_siginfo }
%struct.target_siginfo = type { i32, i32, i32, %union.anon }
%union.anon = type { %struct.anon.2, [80 x i8] }
%struct.anon.2 = type { i32, i32, i32, i64, i64 }
%struct.target_sigaltstack = type { i64, i32, i64 }

@thread_cpu = external thread_local global ptr, align 8

; Function Attrs: nounwind sspstrong uwtable
define internal i32 @host_to_target_errno(i32 noundef %host_errno) #0 {
entry:
  %retval = alloca i32, align 4
  %host_errno.addr = alloca i32, align 4
  store i32 %host_errno, ptr %host_errno.addr, align 4
  %0 = load i32, ptr %host_errno.addr, align 4
  switch i32 %0, label %sw.default [
    i32 98, label %sw.bb
    i32 99, label %sw.bb1
    i32 68, label %sw.bb2
    i32 97, label %sw.bb3
    i32 11, label %sw.bb4
    i32 114, label %sw.bb5
    i32 52, label %sw.bb6
    i32 77, label %sw.bb7
    i32 74, label %sw.bb8
    i32 53, label %sw.bb9
    i32 56, label %sw.bb10
    i32 57, label %sw.bb11
    i32 59, label %sw.bb12
    i32 125, label %sw.bb13
    i32 44, label %sw.bb14
    i32 70, label %sw.bb15
    i32 103, label %sw.bb16
    i32 111, label %sw.bb17
    i32 104, label %sw.bb18
    i32 35, label %sw.bb19
    i32 89, label %sw.bb20
    i32 73, label %sw.bb21
    i32 122, label %sw.bb22
    i32 112, label %sw.bb23
    i32 113, label %sw.bb24
    i32 133, label %sw.bb25
    i32 43, label %sw.bb26
    i32 84, label %sw.bb27
    i32 115, label %sw.bb28
    i32 106, label %sw.bb29
    i32 120, label %sw.bb30
    i32 127, label %sw.bb31
    i32 129, label %sw.bb32
    i32 128, label %sw.bb33
    i32 51, label %sw.bb34
    i32 45, label %sw.bb35
    i32 46, label %sw.bb36
    i32 47, label %sw.bb37
    i32 79, label %sw.bb38
    i32 80, label %sw.bb39
    i32 83, label %sw.bb40
    i32 82, label %sw.bb41
    i32 81, label %sw.bb42
    i32 48, label %sw.bb43
    i32 40, label %sw.bb44
    i32 124, label %sw.bb45
    i32 90, label %sw.bb46
    i32 72, label %sw.bb47
    i32 36, label %sw.bb48
    i32 119, label %sw.bb49
    i32 100, label %sw.bb50
    i32 102, label %sw.bb51
    i32 101, label %sw.bb52
    i32 55, label %sw.bb53
    i32 105, label %sw.bb54
    i32 50, label %sw.bb55
    i32 61, label %sw.bb56
    i32 126, label %sw.bb57
    i32 37, label %sw.bb58
    i32 67, label %sw.bb59
    i32 123, label %sw.bb60
    i32 42, label %sw.bb61
    i32 64, label %sw.bb62
    i32 65, label %sw.bb63
    i32 92, label %sw.bb64
    i32 63, label %sw.bb65
    i32 60, label %sw.bb66
    i32 38, label %sw.bb67
    i32 107, label %sw.bb68
    i32 39, label %sw.bb69
    i32 118, label %sw.bb70
    i32 131, label %sw.bb71
    i32 88, label %sw.bb72
    i32 76, label %sw.bb73
    i32 95, label %sw.bb74
    i32 75, label %sw.bb75
    i32 130, label %sw.bb76
    i32 96, label %sw.bb77
    i32 71, label %sw.bb78
    i32 93, label %sw.bb79
    i32 91, label %sw.bb80
    i32 78, label %sw.bb81
    i32 66, label %sw.bb82
    i32 121, label %sw.bb83
    i32 85, label %sw.bb84
    i32 132, label %sw.bb85
    i32 108, label %sw.bb86
    i32 94, label %sw.bb87
    i32 69, label %sw.bb88
    i32 116, label %sw.bb89
    i32 86, label %sw.bb90
    i32 62, label %sw.bb91
    i32 110, label %sw.bb92
    i32 109, label %sw.bb93
    i32 117, label %sw.bb94
    i32 49, label %sw.bb95
    i32 87, label %sw.bb96
    i32 54, label %sw.bb97
  ]

sw.bb:                                            ; preds = %entry
  store i32 98, ptr %retval, align 4
  br label %return

sw.bb1:                                           ; preds = %entry
  store i32 99, ptr %retval, align 4
  br label %return

sw.bb2:                                           ; preds = %entry
  store i32 68, ptr %retval, align 4
  br label %return

sw.bb3:                                           ; preds = %entry
  store i32 97, ptr %retval, align 4
  br label %return

sw.bb4:                                           ; preds = %entry
  store i32 11, ptr %retval, align 4
  br label %return

sw.bb5:                                           ; preds = %entry
  store i32 114, ptr %retval, align 4
  br label %return

sw.bb6:                                           ; preds = %entry
  store i32 52, ptr %retval, align 4
  br label %return

sw.bb7:                                           ; preds = %entry
  store i32 77, ptr %retval, align 4
  br label %return

sw.bb8:                                           ; preds = %entry
  store i32 74, ptr %retval, align 4
  br label %return

sw.bb9:                                           ; preds = %entry
  store i32 53, ptr %retval, align 4
  br label %return

sw.bb10:                                          ; preds = %entry
  store i32 56, ptr %retval, align 4
  br label %return

sw.bb11:                                          ; preds = %entry
  store i32 57, ptr %retval, align 4
  br label %return

sw.bb12:                                          ; preds = %entry
  store i32 59, ptr %retval, align 4
  br label %return

sw.bb13:                                          ; preds = %entry
  store i32 125, ptr %retval, align 4
  br label %return

sw.bb14:                                          ; preds = %entry
  store i32 44, ptr %retval, align 4
  br label %return

sw.bb15:                                          ; preds = %entry
  store i32 70, ptr %retval, align 4
  br label %return

sw.bb16:                                          ; preds = %entry
  store i32 103, ptr %retval, align 4
  br label %return

sw.bb17:                                          ; preds = %entry
  store i32 111, ptr %retval, align 4
  br label %return

sw.bb18:                                          ; preds = %entry
  store i32 104, ptr %retval, align 4
  br label %return

sw.bb19:                                          ; preds = %entry
  store i32 35, ptr %retval, align 4
  br label %return

sw.bb20:                                          ; preds = %entry
  store i32 89, ptr %retval, align 4
  br label %return

sw.bb21:                                          ; preds = %entry
  store i32 73, ptr %retval, align 4
  br label %return

sw.bb22:                                          ; preds = %entry
  store i32 122, ptr %retval, align 4
  br label %return

sw.bb23:                                          ; preds = %entry
  store i32 112, ptr %retval, align 4
  br label %return

sw.bb24:                                          ; preds = %entry
  store i32 113, ptr %retval, align 4
  br label %return

sw.bb25:                                          ; preds = %entry
  store i32 133, ptr %retval, align 4
  br label %return

sw.bb26:                                          ; preds = %entry
  store i32 43, ptr %retval, align 4
  br label %return

sw.bb27:                                          ; preds = %entry
  store i32 84, ptr %retval, align 4
  br label %return

sw.bb28:                                          ; preds = %entry
  store i32 115, ptr %retval, align 4
  br label %return

sw.bb29:                                          ; preds = %entry
  store i32 106, ptr %retval, align 4
  br label %return

sw.bb30:                                          ; preds = %entry
  store i32 120, ptr %retval, align 4
  br label %return

sw.bb31:                                          ; preds = %entry
  store i32 127, ptr %retval, align 4
  br label %return

sw.bb32:                                          ; preds = %entry
  store i32 129, ptr %retval, align 4
  br label %return

sw.bb33:                                          ; preds = %entry
  store i32 128, ptr %retval, align 4
  br label %return

sw.bb34:                                          ; preds = %entry
  store i32 51, ptr %retval, align 4
  br label %return

sw.bb35:                                          ; preds = %entry
  store i32 45, ptr %retval, align 4
  br label %return

sw.bb36:                                          ; preds = %entry
  store i32 46, ptr %retval, align 4
  br label %return

sw.bb37:                                          ; preds = %entry
  store i32 47, ptr %retval, align 4
  br label %return

sw.bb38:                                          ; preds = %entry
  store i32 79, ptr %retval, align 4
  br label %return

sw.bb39:                                          ; preds = %entry
  store i32 80, ptr %retval, align 4
  br label %return

sw.bb40:                                          ; preds = %entry
  store i32 83, ptr %retval, align 4
  br label %return

sw.bb41:                                          ; preds = %entry
  store i32 82, ptr %retval, align 4
  br label %return

sw.bb42:                                          ; preds = %entry
  store i32 81, ptr %retval, align 4
  br label %return

sw.bb43:                                          ; preds = %entry
  store i32 48, ptr %retval, align 4
  br label %return

sw.bb44:                                          ; preds = %entry
  store i32 40, ptr %retval, align 4
  br label %return

sw.bb45:                                          ; preds = %entry
  store i32 124, ptr %retval, align 4
  br label %return

sw.bb46:                                          ; preds = %entry
  store i32 90, ptr %retval, align 4
  br label %return

sw.bb47:                                          ; preds = %entry
  store i32 72, ptr %retval, align 4
  br label %return

sw.bb48:                                          ; preds = %entry
  store i32 36, ptr %retval, align 4
  br label %return

sw.bb49:                                          ; preds = %entry
  store i32 119, ptr %retval, align 4
  br label %return

sw.bb50:                                          ; preds = %entry
  store i32 100, ptr %retval, align 4
  br label %return

sw.bb51:                                          ; preds = %entry
  store i32 102, ptr %retval, align 4
  br label %return

sw.bb52:                                          ; preds = %entry
  store i32 101, ptr %retval, align 4
  br label %return

sw.bb53:                                          ; preds = %entry
  store i32 55, ptr %retval, align 4
  br label %return

sw.bb54:                                          ; preds = %entry
  store i32 105, ptr %retval, align 4
  br label %return

sw.bb55:                                          ; preds = %entry
  store i32 50, ptr %retval, align 4
  br label %return

sw.bb56:                                          ; preds = %entry
  store i32 61, ptr %retval, align 4
  br label %return

sw.bb57:                                          ; preds = %entry
  store i32 126, ptr %retval, align 4
  br label %return

sw.bb58:                                          ; preds = %entry
  store i32 37, ptr %retval, align 4
  br label %return

sw.bb59:                                          ; preds = %entry
  store i32 67, ptr %retval, align 4
  br label %return

sw.bb60:                                          ; preds = %entry
  store i32 123, ptr %retval, align 4
  br label %return

sw.bb61:                                          ; preds = %entry
  store i32 42, ptr %retval, align 4
  br label %return

sw.bb62:                                          ; preds = %entry
  store i32 64, ptr %retval, align 4
  br label %return

sw.bb63:                                          ; preds = %entry
  store i32 65, ptr %retval, align 4
  br label %return

sw.bb64:                                          ; preds = %entry
  store i32 92, ptr %retval, align 4
  br label %return

sw.bb65:                                          ; preds = %entry
  store i32 63, ptr %retval, align 4
  br label %return

sw.bb66:                                          ; preds = %entry
  store i32 60, ptr %retval, align 4
  br label %return

sw.bb67:                                          ; preds = %entry
  store i32 38, ptr %retval, align 4
  br label %return

sw.bb68:                                          ; preds = %entry
  store i32 107, ptr %retval, align 4
  br label %return

sw.bb69:                                          ; preds = %entry
  store i32 39, ptr %retval, align 4
  br label %return

sw.bb70:                                          ; preds = %entry
  store i32 118, ptr %retval, align 4
  br label %return

sw.bb71:                                          ; preds = %entry
  store i32 131, ptr %retval, align 4
  br label %return

sw.bb72:                                          ; preds = %entry
  store i32 88, ptr %retval, align 4
  br label %return

sw.bb73:                                          ; preds = %entry
  store i32 76, ptr %retval, align 4
  br label %return

sw.bb74:                                          ; preds = %entry
  store i32 95, ptr %retval, align 4
  br label %return

sw.bb75:                                          ; preds = %entry
  store i32 75, ptr %retval, align 4
  br label %return

sw.bb76:                                          ; preds = %entry
  store i32 130, ptr %retval, align 4
  br label %return

sw.bb77:                                          ; preds = %entry
  store i32 96, ptr %retval, align 4
  br label %return

sw.bb78:                                          ; preds = %entry
  store i32 71, ptr %retval, align 4
  br label %return

sw.bb79:                                          ; preds = %entry
  store i32 93, ptr %retval, align 4
  br label %return

sw.bb80:                                          ; preds = %entry
  store i32 91, ptr %retval, align 4
  br label %return

sw.bb81:                                          ; preds = %entry
  store i32 78, ptr %retval, align 4
  br label %return

sw.bb82:                                          ; preds = %entry
  store i32 66, ptr %retval, align 4
  br label %return

sw.bb83:                                          ; preds = %entry
  store i32 121, ptr %retval, align 4
  br label %return

sw.bb84:                                          ; preds = %entry
  store i32 85, ptr %retval, align 4
  br label %return

sw.bb85:                                          ; preds = %entry
  store i32 132, ptr %retval, align 4
  br label %return

sw.bb86:                                          ; preds = %entry
  store i32 108, ptr %retval, align 4
  br label %return

sw.bb87:                                          ; preds = %entry
  store i32 94, ptr %retval, align 4
  br label %return

sw.bb88:                                          ; preds = %entry
  store i32 69, ptr %retval, align 4
  br label %return

sw.bb89:                                          ; preds = %entry
  store i32 116, ptr %retval, align 4
  br label %return

sw.bb90:                                          ; preds = %entry
  store i32 86, ptr %retval, align 4
  br label %return

sw.bb91:                                          ; preds = %entry
  store i32 62, ptr %retval, align 4
  br label %return

sw.bb92:                                          ; preds = %entry
  store i32 110, ptr %retval, align 4
  br label %return

sw.bb93:                                          ; preds = %entry
  store i32 109, ptr %retval, align 4
  br label %return

sw.bb94:                                          ; preds = %entry
  store i32 117, ptr %retval, align 4
  br label %return

sw.bb95:                                          ; preds = %entry
  store i32 49, ptr %retval, align 4
  br label %return

sw.bb96:                                          ; preds = %entry
  store i32 87, ptr %retval, align 4
  br label %return

sw.bb97:                                          ; preds = %entry
  store i32 54, ptr %retval, align 4
  br label %return

sw.default:                                       ; preds = %entry
  %1 = load i32, ptr %host_errno.addr, align 4
  store i32 %1, ptr %retval, align 4
  br label %return

return:                                           ; preds = %sw.default, %sw.bb97, %sw.bb96, %sw.bb95, %sw.bb94, %sw.bb93, %sw.bb92, %sw.bb91, %sw.bb90, %sw.bb89, %sw.bb88, %sw.bb87, %sw.bb86, %sw.bb85, %sw.bb84, %sw.bb83, %sw.bb82, %sw.bb81, %sw.bb80, %sw.bb79, %sw.bb78, %sw.bb77, %sw.bb76, %sw.bb75, %sw.bb74, %sw.bb73, %sw.bb72, %sw.bb71, %sw.bb70, %sw.bb69, %sw.bb68, %sw.bb67, %sw.bb66, %sw.bb65, %sw.bb64, %sw.bb63, %sw.bb62, %sw.bb61, %sw.bb60, %sw.bb59, %sw.bb58, %sw.bb57, %sw.bb56, %sw.bb55, %sw.bb54, %sw.bb53, %sw.bb52, %sw.bb51, %sw.bb50, %sw.bb49, %sw.bb48, %sw.bb47, %sw.bb46, %sw.bb45, %sw.bb44, %sw.bb43, %sw.bb42, %sw.bb41, %sw.bb40, %sw.bb39, %sw.bb38, %sw.bb37, %sw.bb36, %sw.bb35, %sw.bb34, %sw.bb33, %sw.bb32, %sw.bb31, %sw.bb30, %sw.bb29, %sw.bb28, %sw.bb27, %sw.bb26, %sw.bb25, %sw.bb24, %sw.bb23, %sw.bb22, %sw.bb21, %sw.bb20, %sw.bb19, %sw.bb18, %sw.bb17, %sw.bb16, %sw.bb15, %sw.bb14, %sw.bb13, %sw.bb12, %sw.bb11, %sw.bb10, %sw.bb9, %sw.bb8, %sw.bb7, %sw.bb6, %sw.bb5, %sw.bb4, %sw.bb3, %sw.bb2, %sw.bb1, %sw.bb
  %2 = load i32, ptr %retval, align 4
  ret i32 %2
}

; Function Attrs: nounwind sspstrong uwtable
define dso_local i64 @get_errno(i64 noundef %ret) #0 {
entry:
  %retval = alloca i64, align 8
  %ret.addr = alloca i64, align 8
  store i64 %ret, ptr %ret.addr, align 8
  %0 = load i64, ptr %ret.addr, align 8
  %cmp = icmp eq i64 %0, -1
  br i1 %cmp, label %if.then, label %if.else

if.then:                                          ; preds = %entry
  %call = call ptr @__errno_location() #13
  %1 = load i32, ptr %call, align 4
  %call1 = call i32 @host_to_target_errno(i32 noundef %1)
  %sub = sub i32 0, %call1
  %conv = sext i32 %sub to i64
  store i64 %conv, ptr %retval, align 8
  br label %return

if.else:                                          ; preds = %entry
  %2 = load i64, ptr %ret.addr, align 8
  store i64 %2, ptr %retval, align 8
  br label %return

return:                                           ; preds = %if.else, %if.then
  %3 = load i64, ptr %retval, align 8
  ret i64 %3
}

; Function Attrs: nounwind sspstrong uwtable
define internal i32 @safe_connect(i32 noundef %fd, ptr noundef %addr, i32 noundef %addrlen) #0 {
entry:
  %fd.addr = alloca i32, align 4
  %addr.addr = alloca ptr, align 8
  %addrlen.addr = alloca i32, align 4
  store i32 %fd, ptr %fd.addr, align 4
  store ptr %addr, ptr %addr.addr, align 8
  store i32 %addrlen, ptr %addrlen.addr, align 4
  %0 = call align 8 ptr @llvm.threadlocal.address.p0(ptr align 8 @thread_cpu)
  %1 = load ptr, ptr %0, align 8
  %opaque = getelementptr inbounds %struct.CPUState, ptr %1, i32 0, i32 39
  %2 = load ptr, ptr %opaque, align 16
  %signal_pending = getelementptr inbounds %struct.TaskState, ptr %2, i32 0, i32 14
  %3 = load i32, ptr %fd.addr, align 4
  %4 = load ptr, ptr %addr.addr, align 8
  %5 = load i32, ptr %addrlen.addr, align 4
  %call = call i64 (ptr, i64, ...) @safe_syscall_base(ptr noundef %signal_pending, i64 noundef 42, i32 noundef %3, ptr noundef %4, i32 noundef %5)
  %conv = trunc i64 %call to i32
  ret i32 %conv
}

; Function Attrs: nounwind sspstrong uwtable
define internal i64 @do_connect(i32 noundef %sockfd, i64 noundef %target_addr, i32 noundef %addrlen) #0 {
entry:
  %retval = alloca i64, align 8
  %sockfd.addr = alloca i32, align 4
  %target_addr.addr = alloca i64, align 8
  %addrlen.addr = alloca i32, align 4
  %addr = alloca ptr, align 8
  %ret = alloca i64, align 8
  store i32 %sockfd, ptr %sockfd.addr, align 4
  store i64 %target_addr, ptr %target_addr.addr, align 8
  store i32 %addrlen, ptr %addrlen.addr, align 4
  %0 = load i32, ptr %addrlen.addr, align 4
  %cmp = icmp slt i32 %0, 0
  br i1 %cmp, label %if.then, label %if.end

if.then:                                          ; preds = %entry
  store i64 -22, ptr %retval, align 8
  br label %return

if.end:                                           ; preds = %entry
  %1 = load i32, ptr %addrlen.addr, align 4
  %add = add i32 %1, 1
  %conv = zext i32 %add to i64
  %2 = alloca i8, i64 %conv, align 16
  store ptr %2, ptr %addr, align 8
  %3 = load i32, ptr %sockfd.addr, align 4
  %4 = load ptr, ptr %addr, align 8
  %5 = load i64, ptr %target_addr.addr, align 8
  %6 = load i32, ptr %addrlen.addr, align 4
  %call = call i64 @target_to_host_sockaddr(i32 noundef %3, ptr noundef %4, i64 noundef %5, i32 noundef %6)
  store i64 %call, ptr %ret, align 8
  %7 = load i64, ptr %ret, align 8
  %tobool = icmp ne i64 %7, 0
  br i1 %tobool, label %if.then1, label %if.end2

if.then1:                                         ; preds = %if.end
  %8 = load i64, ptr %ret, align 8
  store i64 %8, ptr %retval, align 8
  br label %return

if.end2:                                          ; preds = %if.end
  %9 = load i32, ptr %sockfd.addr, align 4
  %10 = load ptr, ptr %addr, align 8
  %11 = load i32, ptr %addrlen.addr, align 4
  %call3 = call i32 @safe_connect(i32 noundef %9, ptr noundef %10, i32 noundef %11)
  %conv4 = sext i32 %call3 to i64
  %call5 = call i64 @get_errno(i64 noundef %conv4)
  store i64 %call5, ptr %retval, align 8
  br label %return

return:                                           ; preds = %if.end2, %if.then1, %if.then
  %12 = load i64, ptr %retval, align 8
  ret i64 %12
}