; Function Attrs: nounwind sspstrong uwtable
define internal fastcc i64 @do_connect(i32 noundef %sockfd, i64 noundef %target_addr, i32 noundef %addrlen) unnamed_addr #2 {
entry:
  %cmp = icmp slt i32 %addrlen, 0
  br i1 %cmp, label %return, label %if.end

if.end:                                           ; preds = %entry
  %add = add nuw i32 %addrlen, 1
  %conv = zext i32 %add to i64
  %0 = alloca i8, i64 %conv, align 16
  %call = call fastcc i64 @target_to_host_sockaddr(i32 noundef %sockfd, ptr noundef %0, i64 noundef %target_addr, i32 noundef %addrlen)
  %tobool.not = icmp eq i64 %call, 0
  br i1 %tobool.not, label %if.end2, label %return

if.end2:                                          ; preds = %if.end
  %1 = call align 8 ptr @llvm.threadlocal.address.p0(ptr align 8 @thread_cpu)
  %2 = load ptr, ptr %1, align 8
  %opaque.i = getelementptr inbounds nuw i8, ptr %2, i64 624
  %3 = load ptr, ptr %opaque.i, align 16
  %signal_pending.i = getelementptr inbounds nuw i8, ptr %3, i64 9164
  %call.i = call i64 (ptr, i64, ...) @safe_syscall_base(ptr noundef nonnull %signal_pending.i, i64 noundef 42, i32 noundef %sockfd, ptr noundef nonnull %0, i32 noundef range(i32 0, -2147483648) %addrlen) #27
  %sext = shl i64 %call.i, 32
  %conv4 = ashr exact i64 %sext, 32
  %cmp.i = icmp eq i64 %sext, -4294967296
  br i1 %cmp.i, label %if.then.i, label %return

if.then.i:                                        ; preds = %if.end2
  %call.i7 = tail call ptr @__errno_location() #26
  %4 = load i32, ptr %call.i7, align 4
  %sub.i = sub i32 0, %4
  %conv.i8 = sext i32 %sub.i to i64
  br label %return

return:                                           ; preds = %if.then.i, %if.end2, %if.end, %entry
  %retval.0 = phi i64 [ -22, %entry ], [ %call, %if.end ], [ %conv.i8, %if.then.i ], [ %conv4, %if.end2 ]
  ret i64 %retval.0
}